; Function Attrs: null_pointer_is_valid sspstrong uwtable
define internal noundef i32 @dissect_nfs3_link_reply(ptr noundef %0, ptr noundef readonly captures(none) %1, ptr noundef %2, ptr readnone captures(none) %3) #0 {
  %5 = alloca ptr, align 8
  %6 = alloca ptr, align 8
  %7 = tail call i32 @tvb_get_ntohl(ptr noundef %0, i32 noundef 0)
  %.not.i = icmp eq ptr %2, null
  br i1 %.not.i, label %dissect_nfs3_status.exit, label %8

8:                                                ; preds = %4
  %9 = load i32, ptr @hf_nfs3_status, align 4
  %10 = tail call ptr @proto_tree_add_uint(ptr noundef nonnull %2, i32 noundef %9, ptr noundef %0, i32 noundef 0, i32 noundef 4, i32 noundef %7)
  %11 = load i32, ptr @hf_nfs_status, align 4
  %12 = tail call ptr @proto_tree_add_uint(ptr noundef nonnull %2, i32 noundef %11, ptr noundef %0, i32 noundef 0, i32 noundef 4, i32 noundef %7)
  %.not.i.i = icmp eq ptr %12, null
  br i1 %.not.i.i, label %dissect_nfs3_status.exit, label %13

13:                                               ; preds = %8
  %14 = getelementptr inbounds nuw i8, ptr %12, i64 40
  %15 = load ptr, ptr %14, align 8
  %.not5.i.i = icmp eq ptr %15, null
  br i1 %.not5.i.i, label %dissect_nfs3_status.exit, label %16

16:                                               ; preds = %13
  %17 = getelementptr inbounds nuw i8, ptr %15, i64 28
  %18 = load i32, ptr %17, align 4
  %19 = or i32 %18, 1
  store i32 %19, ptr %17, align 4
  br label %dissect_nfs3_status.exit

dissect_nfs3_status.exit:                         ; preds = %4, %8, %13, %16
  %cond = icmp eq i32 %7, 0
  br i1 %cond, label %20, label %31

20:                                               ; preds = %dissect_nfs3_status.exit
  call void @llvm.lifetime.start.p0(i64 8, ptr nonnull %6) #22
  %21 = tail call i32 @tvb_get_ntohl(ptr noundef %0, i32 noundef 4)
  %22 = load i32, ptr @ett_nfs3_post_op_attr, align 4
  %23 = call ptr @proto_tree_add_subtree(ptr noundef %2, ptr noundef %0, i32 noundef 4, i32 noundef -1, i32 noundef %22, ptr noundef nonnull %6, ptr noundef nonnull @.str.2315)
  %24 = load i32, ptr @hf_nfs3_attributes_follow, align 4
  %25 = call ptr @proto_tree_add_uint(ptr noundef %23, i32 noundef %24, ptr noundef %0, i32 noundef 4, i32 noundef 4, i32 noundef %21)
  %cond.i = icmp eq i32 %21, 1
  br i1 %cond.i, label %26, label %dissect_nfs3_post_op_attr.exit

26:                                               ; preds = %20
  %27 = call fastcc i32 @dissect_nfs_fattr3(ptr noundef readonly %1, ptr noundef %0, i32 noundef 8, ptr noundef %23, ptr noundef nonnull @.str, i32 noundef 2)
  br label %dissect_nfs3_post_op_attr.exit

dissect_nfs3_post_op_attr.exit:                   ; preds = %20, %26
  %.0.i = phi i32 [ %27, %26 ], [ 8, %20 ]
  %28 = load ptr, ptr %6, align 8
  %29 = add i32 %.0.i, -4
  call void @proto_item_set_len(ptr noundef %28, i32 noundef %29)
  call void @llvm.lifetime.end.p0(i64 8, ptr nonnull %6) #22
  %30 = call fastcc i32 @dissect_wcc_data(ptr noundef %0, i32 noundef %.0.i, ptr noundef %1, ptr noundef %2, ptr noundef nonnull @.str.2347)
  call void (ptr, ptr, ...) @proto_item_append_text(ptr noundef %2, ptr noundef nonnull @.str.2273)
  br label %45

31:                                               ; preds = %dissect_nfs3_status.exit
  call void @llvm.lifetime.start.p0(i64 8, ptr nonnull %5) #22
  %32 = tail call i32 @tvb_get_ntohl(ptr noundef %0, i32 noundef 4)
  %33 = load i32, ptr @ett_nfs3_post_op_attr, align 4
  %34 = call ptr @proto_tree_add_subtree(ptr noundef %2, ptr noundef %0, i32 noundef 4, i32 noundef -1, i32 noundef %33, ptr noundef nonnull %5, ptr noundef nonnull @.str.2315)
  %35 = load i32, ptr @hf_nfs3_attributes_follow, align 4
  %36 = call ptr @proto_tree_add_uint(ptr noundef %34, i32 noundef %35, ptr noundef %0, i32 noundef 4, i32 noundef 4, i32 noundef %32)
  %cond.i24 = icmp eq i32 %32, 1
  br i1 %cond.i24, label %37, label %dissect_nfs3_post_op_attr.exit26

37:                                               ; preds = %31
  %38 = call fastcc i32 @dissect_nfs_fattr3(ptr noundef readonly %1, ptr noundef %0, i32 noundef 8, ptr noundef %34, ptr noundef nonnull @.str, i32 noundef 2)
  br label %dissect_nfs3_post_op_attr.exit26

dissect_nfs3_post_op_attr.exit26:                 ; preds = %31, %37
  %.0.i25 = phi i32 [ %38, %37 ], [ 8, %31 ]
  %39 = load ptr, ptr %5, align 8
  %40 = add i32 %.0.i25, -4
  call void @proto_item_set_len(ptr noundef %39, i32 noundef %40)
  call void @llvm.lifetime.end.p0(i64 8, ptr nonnull %5) #22
  %41 = call fastcc i32 @dissect_wcc_data(ptr noundef %0, i32 noundef %.0.i25, ptr noundef %1, ptr noundef %2, ptr noundef nonnull @.str.2347)
  %42 = call ptr @val_to_str_ext(i32 noundef %7, ptr noundef nonnull @names_nfs3_status_ext, ptr noundef nonnull @.str.2241)
  %43 = getelementptr inbounds nuw i8, ptr %1, i64 8
  %44 = load ptr, ptr %43, align 8
  call void (ptr, i32, ptr, ...) @col_append_fstr(ptr noundef %44, i32 noundef 25, ptr noundef nonnull @.str.2242, ptr noundef %42)
  call void (ptr, ptr, ...) @proto_item_append_text(ptr noundef %2, ptr noundef nonnull @.str.2274, ptr noundef %42)
  br label %45

45:                                               ; preds = %dissect_nfs3_post_op_attr.exit26, %dissect_nfs3_post_op_attr.exit
  %.0 = phi i32 [ %30, %dissect_nfs3_post_op_attr.exit ], [ %41, %dissect_nfs3_post_op_attr.exit26 ]
  ret i32 %.0
}